target datalayout = "e-m:e-p270:32:32-p271:32:32-p272:64:64-i64:64-i128:128-f80:128-n8:16:32:64-S128"
target triple = "x86_64-pc-linux-gnu"

%"class.Ipopt::TNLPReducer" = type { %"class.Ipopt::TNLP.base", %"class.Ipopt::SmartPtr", i32, i32, i32, ptr, i32, ptr, i32, i32, i32, ptr, i32, ptr, i32, ptr, i32, ptr }
%"class.Ipopt::TNLP.base" = type { %"class.Ipopt::ReferencedObject.base" }
%"class.Ipopt::ReferencedObject.base" = type <{ ptr, i32 }>
%"class.Ipopt::SmartPtr" = type { ptr }

; Function Attrs: mustprogress nounwind uwtable
define linkonce_odr noundef ptr @_ZNK5Ipopt8SmartPtrINS_4TNLPEEptEv(ptr noundef nonnull align 8 dereferenceable(8) %0) #3 comdat align 2 {
  %2 = alloca ptr, align 8
  store ptr %0, ptr %2, align 8
  %3 = load ptr, ptr %2, align 8
  %4 = getelementptr inbounds %"class.Ipopt::SmartPtr", ptr %3, i32 0, i32 0
  %5 = load ptr, ptr %4, align 8
  ret ptr %5
}

; Function Attrs: mustprogress uwtable
define noundef zeroext i1 @_ZN5Ipopt11TNLPReducer10eval_jac_gEiPKdbiiPiS3_Pd(ptr noundef nonnull align 8 dereferenceable(136) %0, i32 noundef %1, ptr noundef %2, i1 noundef zeroext %3, i32 noundef %4, i32 noundef %5, ptr noundef %6, ptr noundef %7, ptr noundef %8) unnamed_addr #0 align 2 {
  %10 = alloca ptr, align 8
  %11 = alloca i32, align 4
  %12 = alloca ptr, align 8
  %13 = alloca i8, align 1
  %14 = alloca i32, align 4
  %15 = alloca i32, align 4
  %16 = alloca ptr, align 8
  %17 = alloca ptr, align 8
  %18 = alloca ptr, align 8
  %19 = alloca i8, align 1
  %20 = alloca ptr, align 8
  %21 = alloca ptr, align 8
  %22 = alloca i32, align 4
  %23 = alloca i32, align 4
  %24 = alloca i32, align 4
  %25 = alloca i32, align 4
  %26 = alloca ptr, align 8
  %27 = alloca ptr, align 8
  %28 = alloca i32, align 4
  %29 = alloca i32, align 4
  %30 = alloca i32, align 4
  store ptr %0, ptr %10, align 8
  store i32 %1, ptr %11, align 4
  store ptr %2, ptr %12, align 8
  %31 = zext i1 %3 to i8
  store i8 %31, ptr %13, align 1
  store i32 %4, ptr %14, align 4
  store i32 %5, ptr %15, align 4
  store ptr %6, ptr %16, align 8
  store ptr %7, ptr %17, align 8
  store ptr %8, ptr %18, align 8
  %32 = load ptr, ptr %10, align 8
  %33 = load ptr, ptr %16, align 8
  %34 = icmp ne ptr %33, null
  br i1 %34, label %35, label %162

35:                                               ; preds = %9
  %36 = getelementptr inbounds %"class.Ipopt::TNLPReducer", ptr %32, i32 0, i32 11
  %37 = load ptr, ptr %36, align 8
  %38 = icmp eq ptr %37, null
  br i1 %38, label %40, label %39

39:                                               ; preds = %35
  call void @_ZdaPv(ptr noundef %37) #11
  br label %40

40:                                               ; preds = %39, %35
  %41 = getelementptr inbounds %"class.Ipopt::TNLPReducer", ptr %32, i32 0, i32 11
  store ptr null, ptr %41, align 8
  %42 = getelementptr inbounds %"class.Ipopt::TNLPReducer", ptr %32, i32 0, i32 3
  %43 = load i32, ptr %42, align 4
  %44 = sext i32 %43 to i64
  %45 = call { i64, i1 } @llvm.umul.with.overflow.i64(i64 %44, i64 4)
  %46 = extractvalue { i64, i1 } %45, 1
  %47 = extractvalue { i64, i1 } %45, 0
  %48 = select i1 %46, i64 -1, i64 %47
  %49 = call noalias noundef nonnull ptr @_Znam(i64 noundef %48) #8
  store ptr %49, ptr %20, align 8
  %50 = getelementptr inbounds %"class.Ipopt::TNLPReducer", ptr %32, i32 0, i32 3
  %51 = load i32, ptr %50, align 4
  %52 = sext i32 %51 to i64
  %53 = call { i64, i1 } @llvm.umul.with.overflow.i64(i64 %52, i64 4)
  %54 = extractvalue { i64, i1 } %53, 1
  %55 = extractvalue { i64, i1 } %53, 0
  %56 = select i1 %54, i64 -1, i64 %55
  %57 = call noalias noundef nonnull ptr @_Znam(i64 noundef %56) #8
  store ptr %57, ptr %21, align 8
  %58 = getelementptr inbounds %"class.Ipopt::TNLPReducer", ptr %32, i32 0, i32 1
  %59 = call noundef ptr @_ZNK5Ipopt8SmartPtrINS_4TNLPEEptEv(ptr noundef nonnull align 8 dereferenceable(8) %58)
  %60 = load i32, ptr %11, align 4
  %61 = load ptr, ptr %12, align 8
  %62 = load i8, ptr %13, align 1
  %63 = trunc i8 %62 to i1
  %64 = getelementptr inbounds %"class.Ipopt::TNLPReducer", ptr %32, i32 0, i32 2
  %65 = load i32, ptr %64, align 8
  %66 = getelementptr inbounds %"class.Ipopt::TNLPReducer", ptr %32, i32 0, i32 3
  %67 = load i32, ptr %66, align 4
  %68 = load ptr, ptr %20, align 8
  %69 = load ptr, ptr %21, align 8
  %70 = load ptr, ptr %18, align 8
  %71 = load ptr, ptr %59, align 8
  %72 = getelementptr inbounds ptr, ptr %71, i64 13
  %73 = load ptr, ptr %72, align 8
  %74 = call noundef zeroext i1 %73(ptr noundef nonnull align 8 dereferenceable(12) %59, i32 noundef %60, ptr noundef %61, i1 noundef zeroext %63, i32 noundef %65, i32 noundef %67, ptr noundef %68, ptr noundef %69, ptr noundef %70)
  %75 = zext i1 %74 to i8
  store i8 %75, ptr %19, align 1
  %76 = getelementptr inbounds %"class.Ipopt::TNLPReducer", ptr %32, i32 0, i32 6
  %77 = load i32, ptr %76, align 8
  %78 = icmp eq i32 %77, 1
  %79 = select i1 %78, i32 1, i32 0
  store i32 %79, ptr %22, align 4
  %80 = load i8, ptr %19, align 1
  %81 = trunc i8 %80 to i1
  br i1 %81, label %82, label %153

82:                                               ; preds = %40
  %83 = getelementptr inbounds %"class.Ipopt::TNLPReducer", ptr %32, i32 0, i32 10
  %84 = load i32, ptr %83, align 8
  %85 = add nsw i32 %84, 1
  %86 = sext i32 %85 to i64
  %87 = call { i64, i1 } @llvm.umul.with.overflow.i64(i64 %86, i64 4)
  %88 = extractvalue { i64, i1 } %87, 1
  %89 = extractvalue { i64, i1 } %87, 0
  %90 = select i1 %88, i64 -1, i64 %89
  %91 = call noalias noundef nonnull ptr @_Znam(i64 noundef %90) #8
  %92 = getelementptr inbounds %"class.Ipopt::TNLPReducer", ptr %32, i32 0, i32 11
  store ptr %91, ptr %92, align 8
  store i32 0, ptr %23, align 4
  store i32 0, ptr %24, align 4
  store i32 0, ptr %25, align 4
  br label %93

93:                                               ; preds = %143, %82
  %94 = load i32, ptr %25, align 4
  %95 = getelementptr inbounds %"class.Ipopt::TNLPReducer", ptr %32, i32 0, i32 3
  %96 = load i32, ptr %95, align 4
  %97 = icmp slt i32 %94, %96
  br i1 %97, label %98, label %146

98:                                               ; preds = %93
  %99 = getelementptr inbounds %"class.Ipopt::TNLPReducer", ptr %32, i32 0, i32 7
  %100 = load ptr, ptr %99, align 8
  %101 = load ptr, ptr %20, align 8
  %102 = load i32, ptr %25, align 4
  %103 = sext i32 %102 to i64
  %104 = getelementptr inbounds i32, ptr %101, i64 %103
  %105 = load i32, ptr %104, align 4
  %106 = load i32, ptr %22, align 4
  %107 = sub nsw i32 %105, %106
  %108 = sext i32 %107 to i64
  %109 = getelementptr inbounds i32, ptr %100, i64 %108
  store ptr %109, ptr %26, align 8
  %110 = load ptr, ptr %26, align 8
  %111 = load i32, ptr %110, align 4
  %112 = icmp sge i32 %111, 0
  br i1 %112, label %113, label %133

113:                                              ; preds = %98
  %114 = load ptr, ptr %26, align 8
  %115 = load i32, ptr %114, align 4
  %116 = load i32, ptr %22, align 4
  %117 = add nsw i32 %115, %116
  %118 = load ptr, ptr %16, align 8
  %119 = load i32, ptr %23, align 4
  %120 = sext i32 %119 to i64
  %121 = getelementptr inbounds i32, ptr %118, i64 %120
  store i32 %117, ptr %121, align 4
  %122 = load ptr, ptr %21, align 8
  %123 = load i32, ptr %25, align 4
  %124 = sext i32 %123 to i64
  %125 = getelementptr inbounds i32, ptr %122, i64 %124
  %126 = load i32, ptr %125, align 4
  %127 = load ptr, ptr %17, align 8
  %128 = load i32, ptr %23, align 4
  %129 = sext i32 %128 to i64
  %130 = getelementptr inbounds i32, ptr %127, i64 %129
  store i32 %126, ptr %130, align 4
  %131 = load i32, ptr %23, align 4
  %132 = add nsw i32 %131, 1
  store i32 %132, ptr %23, align 4
  br label %142

133:                                              ; preds = %98
  %134 = load i32, ptr %25, align 4
  %135 = getelementptr inbounds %"class.Ipopt::TNLPReducer", ptr %32, i32 0, i32 11
  %136 = load ptr, ptr %135, align 8
  %137 = load i32, ptr %24, align 4
  %138 = sext i32 %137 to i64
  %139 = getelementptr inbounds i32, ptr %136, i64 %138
  store i32 %134, ptr %139, align 4
  %140 = load i32, ptr %24, align 4
  %141 = add nsw i32 %140, 1
  store i32 %141, ptr %24, align 4
  br label %142

142:                                              ; preds = %133, %113
  br label %143

143:                                              ; preds = %142
  %144 = load i32, ptr %25, align 4
  %145 = add nsw i32 %144, 1
  store i32 %145, ptr %25, align 4
  br label %93, !llvm.loop !21

146:                                              ; preds = %93
  %147 = getelementptr inbounds %"class.Ipopt::TNLPReducer", ptr %32, i32 0, i32 11
  %148 = load ptr, ptr %147, align 8
  %149 = getelementptr inbounds %"class.Ipopt::TNLPReducer", ptr %32, i32 0, i32 10
  %150 = load i32, ptr %149, align 8
  %151 = sext i32 %150 to i64
  %152 = getelementptr inbounds i32, ptr %148, i64 %151
  store i32 -1, ptr %152, align 4
  br label %153

153:                                              ; preds = %146, %40
  %154 = load ptr, ptr %20, align 8
  %155 = icmp eq ptr %154, null
  br i1 %155, label %157, label %156

156:                                              ; preds = %153
  call void @_ZdaPv(ptr noundef %154) #11
  br label %157

157:                                              ; preds = %156, %153
  %158 = load ptr, ptr %21, align 8
  %159 = icmp eq ptr %158, null
  br i1 %159, label %161, label %160

160:                                              ; preds = %157
  call void @_ZdaPv(ptr noundef %158) #11
  br label %161

161:                                              ; preds = %160, %157
  br label %231

162:                                              ; preds = %9
  %163 = getelementptr inbounds %"class.Ipopt::TNLPReducer", ptr %32, i32 0, i32 3
  %164 = load i32, ptr %163, align 4
  %165 = sext i32 %164 to i64
  %166 = call { i64, i1 } @llvm.umul.with.overflow.i64(i64 %165, i64 8)
  %167 = extractvalue { i64, i1 } %166, 1
  %168 = extractvalue { i64, i1 } %166, 0
  %169 = select i1 %167, i64 -1, i64 %168
  %170 = call noalias noundef nonnull ptr @_Znam(i64 noundef %169) #8
  store ptr %170, ptr %27, align 8
  %171 = getelementptr inbounds %"class.Ipopt::TNLPReducer", ptr %32, i32 0, i32 1
  %172 = call noundef ptr @_ZNK5Ipopt8SmartPtrINS_4TNLPEEptEv(ptr noundef nonnull align 8 dereferenceable(8) %171)
  %173 = load i32, ptr %11, align 4
  %174 = load ptr, ptr %12, align 8
  %175 = load i8, ptr %13, align 1
  %176 = trunc i8 %175 to i1
  %177 = getelementptr inbounds %"class.Ipopt::TNLPReducer", ptr %32, i32 0, i32 2
  %178 = load i32, ptr %177, align 8
  %179 = getelementptr inbounds %"class.Ipopt::TNLPReducer", ptr %32, i32 0, i32 3
  %180 = load i32, ptr %179, align 4
  %181 = load ptr, ptr %16, align 8
  %182 = load ptr, ptr %17, align 8
  %183 = load ptr, ptr %27, align 8
  %184 = load ptr, ptr %172, align 8
  %185 = getelementptr inbounds ptr, ptr %184, i64 13
  %186 = load ptr, ptr %185, align 8
  %187 = call noundef zeroext i1 %186(ptr noundef nonnull align 8 dereferenceable(12) %172, i32 noundef %173, ptr noundef %174, i1 noundef zeroext %176, i32 noundef %178, i32 noundef %180, ptr noundef %181, ptr noundef %182, ptr noundef %183)
  %188 = zext i1 %187 to i8
  store i8 %188, ptr %19, align 1
  %189 = load i8, ptr %19, align 1
  %190 = trunc i8 %189 to i1
  br i1 %190, label %191, label %226

191:                                              ; preds = %162
  store i32 0, ptr %28, align 4
  store i32 0, ptr %29, align 4
  store i32 0, ptr %30, align 4
  br label %192

192:                                              ; preds = %222, %191
  %193 = load i32, ptr %30, align 4
  %194 = getelementptr inbounds %"class.Ipopt::TNLPReducer", ptr %32, i32 0, i32 3
  %195 = load i32, ptr %194, align 4
  %196 = icmp slt i32 %193, %195
  br i1 %196, label %197, label %225

197:                                              ; preds = %192
  %198 = getelementptr inbounds %"class.Ipopt::TNLPReducer", ptr %32, i32 0, i32 11
  %199 = load ptr, ptr %198, align 8
  %200 = load i32, ptr %28, align 4
  %201 = sext i32 %200 to i64
  %202 = getelementptr inbounds i32, ptr %199, i64 %201
  %203 = load i32, ptr %202, align 4
  %204 = load i32, ptr %30, align 4
  %205 = icmp eq i32 %203, %204
  br i1 %205, label %206, label %209

206:                                              ; preds = %197
  %207 = load i32, ptr %28, align 4
  %208 = add nsw i32 %207, 1
  store i32 %208, ptr %28, align 4
  br label %221

209:                                              ; preds = %197
  %210 = load ptr, ptr %27, align 8
  %211 = load i32, ptr %30, align 4
  %212 = sext i32 %211 to i64
  %213 = getelementptr inbounds double, ptr %210, i64 %212
  %214 = load double, ptr %213, align 8
  %215 = load ptr, ptr %18, align 8
  %216 = load i32, ptr %29, align 4
  %217 = sext i32 %216 to i64
  %218 = getelementptr inbounds double, ptr %215, i64 %217
  store double %214, ptr %218, align 8
  %219 = load i32, ptr %29, align 4
  %220 = add nsw i32 %219, 1
  store i32 %220, ptr %29, align 4
  br label %221

221:                                              ; preds = %209, %206
  br label %222

222:                                              ; preds = %221
  %223 = load i32, ptr %30, align 4
  %224 = add nsw i32 %223, 1
  store i32 %224, ptr %30, align 4
  br label %192, !llvm.loop !22

225:                                              ; preds = %192
  br label %226

226:                                              ; preds = %225, %162
  %227 = load ptr, ptr %27, align 8
  %228 = icmp eq ptr %227, null
  br i1 %228, label %230, label %229

229:                                              ; preds = %226
  call void @_ZdaPv(ptr noundef %227) #11
  br label %230

230:                                              ; preds = %229, %226
  br label %231

231:                                              ; preds = %230, %161
  %232 = load i8, ptr %19, align 1
  %233 = trunc i8 %232 to i1
  ret i1 %233
}