; Function Attrs: mustprogress uwtable
define noundef zeroext i1 @_ZN5Ipopt11TNLPReducer10eval_jac_gEiPKdbiiPiS3_Pd(ptr nocapture noundef nonnull align 8 dereferenceable(136) %0, i32 noundef %1, ptr noundef %2, i1 noundef zeroext %3, i32 %4, i32 %5, ptr noundef writeonly %6, ptr noundef %7, ptr noundef %8) unnamed_addr #0 align 2 {
  %.not = icmp eq ptr %6, null
  br i1 %.not, label %80, label %10

10:                                               ; preds = %9
  %11 = getelementptr inbounds i8, ptr %0, i64 80
  %12 = load ptr, ptr %11, align 8
  %13 = icmp eq ptr %12, null
  br i1 %13, label %15, label %14

14:                                               ; preds = %10
  tail call void @_ZdaPv(ptr noundef nonnull %12) #9
  br label %15

15:                                               ; preds = %14, %10
  store ptr null, ptr %11, align 8
  %16 = getelementptr inbounds i8, ptr %0, i64 28
  %17 = load i32, ptr %16, align 4
  %18 = sext i32 %17 to i64
  %19 = icmp slt i32 %17, 0
  %20 = shl nsw i64 %18, 2
  %21 = select i1 %19, i64 -1, i64 %20
  %22 = tail call noalias noundef nonnull ptr @_Znam(i64 noundef %21) #8
  %23 = tail call noalias noundef nonnull ptr @_Znam(i64 noundef %21) #8
  %24 = getelementptr inbounds i8, ptr %0, i64 16
  %25 = load ptr, ptr %24, align 8
  %26 = getelementptr inbounds i8, ptr %0, i64 24
  %27 = load i32, ptr %26, align 8
  %28 = load ptr, ptr %25, align 8
  %29 = getelementptr inbounds i8, ptr %28, i64 104
  %30 = load ptr, ptr %29, align 8
  %31 = tail call noundef zeroext i1 %30(ptr noundef nonnull align 8 dereferenceable(12) %25, i32 noundef %1, ptr noundef %2, i1 noundef zeroext %3, i32 noundef %27, i32 noundef %17, ptr noundef nonnull %22, ptr noundef nonnull %23, ptr noundef %8)
  %32 = getelementptr inbounds i8, ptr %0, i64 48
  %33 = load i32, ptr %32, align 8
  %34 = icmp eq i32 %33, 1
  %35 = zext i1 %34 to i32
  br i1 %31, label %36, label %79

36:                                               ; preds = %15
  %37 = getelementptr inbounds i8, ptr %0, i64 72
  %38 = load i32, ptr %37, align 8
  %39 = add nsw i32 %38, 1
  %40 = sext i32 %39 to i64
  %41 = icmp slt i32 %38, -1
  %42 = shl nsw i64 %40, 2
  %43 = select i1 %41, i64 -1, i64 %42
  %44 = tail call noalias noundef nonnull ptr @_Znam(i64 noundef %43) #8
  store ptr %44, ptr %11, align 8
  %45 = load i32, ptr %16, align 4
  %46 = icmp sgt i32 %45, 0
  br i1 %46, label %.lr.ph, label %._crit_edge

.lr.ph:                                           ; preds = %36
  %47 = getelementptr inbounds i8, ptr %0, i64 56
  br label %48

48:                                               ; preds = %.lr.ph, %71
  %indvars.iv = phi i64 [ 0, %.lr.ph ], [ %indvars.iv.next, %71 ]
  %.05162 = phi i32 [ 0, %.lr.ph ], [ %.152, %71 ]
  %.05460 = phi i32 [ 0, %.lr.ph ], [ %.155, %71 ]
  %49 = load ptr, ptr %47, align 8
  %50 = getelementptr inbounds i32, ptr %22, i64 %indvars.iv
  %51 = load i32, ptr %50, align 4
  %52 = sub nsw i32 %51, %35
  %53 = sext i32 %52 to i64
  %54 = getelementptr inbounds i32, ptr %49, i64 %53
  %55 = load i32, ptr %54, align 4
  %56 = icmp sgt i32 %55, -1
  br i1 %56, label %57, label %65

57:                                               ; preds = %48
  %58 = add nuw nsw i32 %55, %35
  %59 = sext i32 %.05162 to i64
  %60 = getelementptr inbounds i32, ptr %6, i64 %59
  store i32 %58, ptr %60, align 4
  %61 = getelementptr inbounds i32, ptr %23, i64 %indvars.iv
  %62 = load i32, ptr %61, align 4
  %63 = getelementptr inbounds i32, ptr %7, i64 %59
  store i32 %62, ptr %63, align 4
  %64 = add nsw i32 %.05162, 1
  br label %71

65:                                               ; preds = %48
  %66 = load ptr, ptr %11, align 8
  %67 = sext i32 %.05460 to i64
  %68 = getelementptr inbounds i32, ptr %66, i64 %67
  %69 = trunc i64 %indvars.iv to i32
  store i32 %69, ptr %68, align 4
  %70 = add nsw i32 %.05460, 1
  br label %71

71:                                               ; preds = %57, %65
  %.155 = phi i32 [ %.05460, %57 ], [ %70, %65 ]
  %.152 = phi i32 [ %64, %57 ], [ %.05162, %65 ]
  %indvars.iv.next = add nuw nsw i64 %indvars.iv, 1
  %72 = load i32, ptr %16, align 4
  %73 = sext i32 %72 to i64
  %74 = icmp slt i64 %indvars.iv.next, %73
  br i1 %74, label %48, label %._crit_edge.loopexit, !llvm.loop !21

._crit_edge.loopexit:                             ; preds = %71
  %.pre = load ptr, ptr %11, align 8
  %.pre72 = load i32, ptr %37, align 8
  br label %._crit_edge

._crit_edge:                                      ; preds = %._crit_edge.loopexit, %36
  %75 = phi i32 [ %.pre72, %._crit_edge.loopexit ], [ %38, %36 ]
  %76 = phi ptr [ %.pre, %._crit_edge.loopexit ], [ %44, %36 ]
  %77 = sext i32 %75 to i64
  %78 = getelementptr inbounds i32, ptr %76, i64 %77
  store i32 -1, ptr %78, align 4
  br label %79

79:                                               ; preds = %15, %._crit_edge
  tail call void @_ZdaPv(ptr noundef nonnull %22) #9
  br label %.loopexit

80:                                               ; preds = %9
  %81 = getelementptr inbounds i8, ptr %0, i64 28
  %82 = load i32, ptr %81, align 4
  %83 = sext i32 %82 to i64
  %84 = icmp slt i32 %82, 0
  %85 = shl nsw i64 %83, 3
  %86 = select i1 %84, i64 -1, i64 %85
  %87 = tail call noalias noundef nonnull ptr @_Znam(i64 noundef %86) #8
  %88 = getelementptr inbounds i8, ptr %0, i64 16
  %89 = load ptr, ptr %88, align 8
  %90 = getelementptr inbounds i8, ptr %0, i64 24
  %91 = load i32, ptr %90, align 8
  %92 = load ptr, ptr %89, align 8
  %93 = getelementptr inbounds i8, ptr %92, i64 104
  %94 = load ptr, ptr %93, align 8
  %95 = tail call noundef zeroext i1 %94(ptr noundef nonnull align 8 dereferenceable(12) %89, i32 noundef %1, ptr noundef %2, i1 noundef zeroext %3, i32 noundef %91, i32 noundef %82, ptr noundef null, ptr noundef %7, ptr noundef nonnull %87)
  %96 = load i32, ptr %81, align 4
  %97 = icmp sgt i32 %96, 0
  %or.cond = select i1 %95, i1 %97, i1 false
  br i1 %or.cond, label %.lr.ph66, label %.loopexit

.lr.ph66:                                         ; preds = %80
  %98 = getelementptr inbounds i8, ptr %0, i64 80
  br label %99

99:                                               ; preds = %.lr.ph66, %115
  %100 = phi i32 [ %96, %.lr.ph66 ], [ %116, %115 ]
  %indvars.iv69 = phi i64 [ 0, %.lr.ph66 ], [ %indvars.iv.next70, %115 ]
  %.04764 = phi i32 [ 0, %.lr.ph66 ], [ %.1, %115 ]
  %.04863 = phi i32 [ 0, %.lr.ph66 ], [ %.149, %115 ]
  %101 = load ptr, ptr %98, align 8
  %102 = sext i32 %.04863 to i64
  %103 = getelementptr inbounds i32, ptr %101, i64 %102
  %104 = load i32, ptr %103, align 4
  %105 = zext i32 %104 to i64
  %106 = icmp eq i64 %indvars.iv69, %105
  br i1 %106, label %107, label %109

107:                                              ; preds = %99
  %108 = add nsw i32 %.04863, 1
  br label %115

109:                                              ; preds = %99
  %110 = getelementptr inbounds double, ptr %87, i64 %indvars.iv69
  %111 = load double, ptr %110, align 8
  %112 = sext i32 %.04764 to i64
  %113 = getelementptr inbounds double, ptr %8, i64 %112
  store double %111, ptr %113, align 8
  %114 = add nsw i32 %.04764, 1
  %.pre73 = load i32, ptr %81, align 4
  br label %115

115:                                              ; preds = %107, %109
  %116 = phi i32 [ %100, %107 ], [ %.pre73, %109 ]
  %.149 = phi i32 [ %108, %107 ], [ %.04863, %109 ]
  %.1 = phi i32 [ %.04764, %107 ], [ %114, %109 ]
  %indvars.iv.next70 = add nuw nsw i64 %indvars.iv69, 1
  %117 = sext i32 %116 to i64
  %118 = icmp slt i64 %indvars.iv.next70, %117
  br i1 %118, label %99, label %.loopexit, !llvm.loop !22

.loopexit:                                        ; preds = %115, %80, %79
  %.sink = phi ptr [ %23, %79 ], [ %87, %80 ], [ %87, %115 ]
  %.050.in = phi i1 [ %31, %79 ], [ %95, %80 ], [ %95, %115 ]
  tail call void @_ZdaPv(ptr noundef nonnull %.sink) #9
  ret i1 %.050.in
}